CCS PCH C Compiler, Version 4.120, 26417               31-May.-16 18:32

               Filename: C:\Users\Michael Vargas\Desktop\PARCIAL_FINAL_MICROS1\TRABAJO MICROS1\ADC+Display7Seg.lst

               ROM used: 1544 bytes (1%)
                         Largest free fragment is 65528
               RAM used: 49 (1%) at main() level
                         60 (2%) worst case
               Stack:    1 locations

*
01000:  GOTO   125A
.................... #include <18F47J53.h> 
.................... //////// Standard Header file for the PIC18F47J53 device //////////////// 
.................... #device PIC18F47J53 
.................... #list 
....................  
.................... #device ADC=8 
.................... #FUSES NOWDT         //WDT disabled (enabled by SWDTEN bit)                     
.................... #FUSES PLL3          //Divide by 3 (12 MHz oscillator input)             
.................... #FUSES NOPLLEN       //PLL Disabled 
.................... #FUSES NOSTVREN      //stack overflow/underflow reset enabled                 
.................... #FUSES NOXINST       //Extended instruction set disabled             
.................... #FUSES NOCPUDIV      //No CPU system clock divide          
.................... #FUSES NOPROTECT     //Program memory is not code-protected           
.................... #FUSES HSPLL         //HS oscillator, PLL enabled, HSPLL used by USB            
.................... #FUSES SOSC_HIGH     //High Power T1OSC/SOSC circuit selected 
.................... #FUSES CLOCKOUT      //CLKO output enabled on the RA6 pin  
.................... #FUSES NOFCMEN       //Fail-Safe Clock Monitor disabled 
.................... #FUSES NOIESO        //Two-Speed Start-up disabled 
.................... #FUSES WDT32768      //Watchdog Postscaler 1:32768 
.................... #FUSES DSWDTOSC_int  //DSWDT uses INTOSC/INTRC as clock 
.................... #FUSES RTCOSC_int    //RTCC uses INTRC as clock 
.................... #FUSES NODSBOR       //Zero-Power BOR disabled in Deep Sleep 
.................... #FUSES NODSWDT       //Deep Sleep Watchdog Timer Disabled 
.................... #FUSES DSWDT8192     //Deep Sleep Watchdog Postscaler: 1:8,192 (8.5 seconds)    
.................... #FUSES NOIOL1WAY     //IOLOCK bit can be set and cleared 
.................... #FUSES ADC12         //ADC 10 or 12 Bit Select:12 - Bit ADC Enabed  
.................... #FUSES MSSPMSK7      //MSSP 7 Bit address masking 
.................... #FUSES NOWPFP        //Write Protect Program Flash Page 0 
.................... #FUSES NOWPCFG       //Write/Erase last page protect Disabled 
.................... #FUSES WPDIS         //WPFP[5:0], WPEND, and WPCFG bits ignored  
.................... #FUSES WPEND         //Start protection at page 0 
.................... #FUSES LS48MHZ       //Low Speed USB mode with 48 MHz System clock at 48 MHz USB CLKEN divide-by is set to 8  
.................... #use delay(clock=48000000) 
*
01008:  MOVLW  01
0100A:  SUBWF  31,F
0100C:  BNC   1026
0100E:  CLRF   FEA
01010:  MOVLW  31
01012:  MOVWF  FE9
01014:  MOVF   FEF,W
01016:  BZ    1026
01018:  MOVLW  02
0101A:  MOVWF  00
0101C:  DECFSZ 00,F
0101E:  BRA    101C
01020:  BRA    1022
01022:  DECFSZ FEF,F
01024:  BRA    1018
01026:  RETURN 0
.................... #pin_select U2TX=PIN_D2 //Selecciona hardware UART2 
.................... #pin_select U2RX=PIN_D3 //Selecciona hardware UART2 
.................... #define LOADER_END   0xFFF                         
.................... #build(reset=LOADER_END+1, interrupt=LOADER_END+9)   //Protege posiciones de memoria desde la 0x0000 hasta la 0x1000    
.................... #org 0, LOADER_END {} 
.................... #bit PLLEN = 0xf9b.6 
.................... #use  rs232(baud=9600,parity=N,UART1,bits=8,timeout=30) 
....................  
.................... /********************************************************/ 
.................... /*------- Espacio para declaracion de constantes  ------*/ 
.................... /********************************************************/ 
.................... #define d_unidad  PIN_E0 // Pin seleccionado para el control del 7segmento Unidad 
.................... #define d_decena  PIN_A5     // Pin seleccionado para el control del 7segmento Decena 
.................... #define d_centena PIN_E1   // Pin seleccionado para el control del 7segmento Centena 
.................... #define d_umil    PIN_E2   // Pin seleccionado para el control del 7segmento Unidad de Mil 
.................... #define CH_VIENTO 12 //Canal del ADC seleccionado para leer la humedad 
.................... #define CH_TEMP 10 //Canal del ADC seleccionado para leer la temperatura 
.................... #define CH_LUZ 9 //Canal del ADC seleccionado para leer la luz 
....................  
.................... //Pines de pulsadores 
.................... #define PULSADOR1 PIN_B7 
.................... #define PULSADOR2 PIN_B6 
.................... #define PULSADOR3 PIN_B5 
....................  
.................... /********************************************************/ 
.................... /*--- Espacio para declaracion de variables globales  --*/ 
.................... /********************************************************/ 
.................... unsigned int16 i=0,n=0 ; 
.................... unsigned int16 dato_analogo; 
.................... int32 luz; 
.................... unsigned char temp,vel_viento,select;//Variables para guardar datos de los sensores 
.................... unsigned char bcd_cent=0,bcd_dec=0,bcd_unid=0,bcd_mil=0; 
.................... char unidad=0,decena=0,centena=0,umil=0; 
....................  
.................... char display[16]=   
.................... { 
....................    0b00111111,//0 
....................    0b00000110,//1 
....................    0b01011011,//2 
....................    0b01001111,//3 
....................    0b01100110,//4 
....................    0b01101101,//5 
....................    0b01111101,//6 
....................    0b00000111,//7 
....................    0b01111111,//8 
....................    0b01100111,//9 
....................    0b01110111,//A 
....................    0b01111100,//B 
....................    0b01011000,//C 
....................    0b01011110,//D 
....................    0b01111011,//E 
....................    0b01110001,//F 
.................... };// La anterior Tabla contiene los valores binarios para la visualización de los 
....................  
....................                       // números en los segmentos  
....................        
.................... /********************************************************/ 
.................... /********************************************************/ 
.................... /*-------------- Espacio para funciones  ---------------*/ 
.................... /********************************************************/ 
.................... #include <stdlib.h> // for atoi32 
.................... /////////////////////////////////////////////////////////////////////////// 
.................... ////        (C) Copyright 1996,2007 Custom Computer Services           //// 
.................... //// This source code may only be used by licensed users of the CCS C  //// 
.................... //// compiler.  This source code may only be distributed to other      //// 
.................... //// licensed users of the CCS C compiler.  No other use, reproduction //// 
.................... //// or distribution is permitted without written permission.          //// 
.................... //// Derivative programs created using this software in object code    //// 
.................... //// form are not restricted in any way.                               //// 
.................... /////////////////////////////////////////////////////////////////////////// 
....................  
.................... #ifndef _STDLIB 
.................... #define _STDLIB 
....................  
.................... //--------------------------------------------------------------------------- 
.................... // Definitions and types 
.................... //--------------------------------------------------------------------------- 
....................  
.................... #ifndef RAND_MAX 
.................... #define RAND_MAX  32767    // The value of which is the maximum value 
....................                            // ... returned by the rand function 
.................... #endif 
....................  
....................  
.................... #IF (sizeof(int16*)>1) 
.................... #DEFINE LONG_POINTERS 1 
.................... #ELSE  
.................... #DEFINE LONG_POINTERS 0 
.................... #ENDIF 
....................  
.................... typedef struct { 
....................    signed int quot; 
....................    signed int rem; 
.................... } div_t; 
....................  
.................... typedef struct { 
....................    signed long quot; 
....................    signed long rem; 
.................... } ldiv_t; 
....................  
.................... #include <stddef.h> 
.................... /////////////////////////////////////////////////////////////////////////// 
.................... ////        (C) Copyright 1996,2003 Custom Computer Services           //// 
.................... //// This source code may only be used by licensed users of the CCS C  //// 
.................... //// compiler.  This source code may only be distributed to other      //// 
.................... //// licensed users of the CCS C compiler.  No other use, reproduction //// 
.................... //// or distribution is permitted without written permission.          //// 
.................... //// Derivative programs created using this software in object code    //// 
.................... //// form are not restricted in any way.                               //// 
.................... /////////////////////////////////////////////////////////////////////////// 
....................  
.................... #ifndef _STDDEF 
....................  
.................... #define _STDDEF 
....................  
.................... #if sizeof(unsigned int8 *)==1 
.................... #define ptrdiff_t unsigned int8 
.................... #else 
.................... #define ptrdiff_t unsigned int16 
.................... #endif 
....................  
.................... #if defined(__PCB__) 
.................... #define size_t unsigned int8 
.................... #else 
.................... #define size_t unsigned int16 
.................... #endif 
.................... #define wchar_t char 
.................... #define NULL 0 
....................  
.................... #define offsetof(s,f) (offsetofbit(s,f)/8) 
....................  
.................... #endif 
....................  
....................  
.................... //--------------------------------------------------------------------------- 
.................... // String conversion functions 
.................... //--------------------------------------------------------------------------- 
....................  
.................... /* Standard template: signed int  atoi(char * s) 
....................  * converts the initial portion of the string s to a signed int 
....................  * returns the converted value if any, 0 otherwise 
....................  */ 
.................... signed int atoi(char *s); 
....................  
.................... /* Syntax: signed int32  atoi32(char * s) 
....................    converts the initial portion of the string s to a signed int32 
....................    returns the converted value if any, 0 otherwise*/ 
.................... #if (sizeof(long)==4) 
....................  #define atoi32(s) atol(s) 
.................... #else  
....................  signed int32 atoi32(char *s); 
.................... #endif 
....................  
.................... #if defined(__PCD__) 
.................... // The following functions only work on the 24 bit compiler 
.................... // for the 30F, 33F, 24F and 24H parts 
.................... /* Syntax: signed int48  atoi48(char * s) 
....................    converts the initial portion of the string s to a signed int48 
....................    returns the converted value if any, 0 otherwise*/ 
....................     
.................... signed int48 atoi48(char *s); 
....................  
.................... /* Syntax: signed int64  atoi64(char * s) 
....................    converts the initial portion of the string s to a signed int64 
....................    returns the converted value if any, 0 otherwise*/ 
.................... signed int64 atoi64(char *s); 
.................... #endif 
....................  
.................... /* Syntax: char *  itoa(signed int32 num, int8 base, char * s) 
....................    converts the signed int32 to a string and 
....................    returns the converted value if any, 0 otherwise*/ 
.................... char * itoa(signed int32 num, unsigned int base, char * s); 
....................  
.................... /* Standard template: signed int16  atol(char * s) 
....................  * converts the initial portion of the string s to a signed int16 
....................  * returns the converted value if any, 0 otherwise 
....................  */ 
.................... signed long atol(char *s); 
....................  
.................... /* Standard template: int16 strtoul(char * s,char *endptr,signed int base) 
....................  * converts the initial portion of the string s, represented as an 
....................  * integral value of radix base  to a signed long. 
....................  * Returns the converted value if any, 0 otherwise 
....................  * the final string is returned in the endptr, if endptr is not null 
....................  */ 
.................... signed long strtol(char *s,char *endptr, signed int base); 
....................  
.................... /* Standard template: int16 strtoul(char * s,char *endptr,signed int base) 
....................  * converts the initial portion of the string s, represented as an 
....................  * integral value of radix base to a unsigned long. 
....................  * returns the converted value if any, 0 otherwise 
....................  * the final string is returned in the endptr, if endptr is not null 
....................  */ 
.................... unsigned long strtoul(char *s,char *endptr, signed int base); 
....................  
.................... /* Standart template: float strtof(char * s,char *endptr) 
....................                       float48 strtof48(char *s,char *endptr); 
....................                       float64 strtod(char *s,char *endptr); 
....................  * converts the initial portion of the string s to a float32, float48 or float64, 
....................  * returns the converted value if any, 0 otherwise 
....................  * the final string is returned in the endptr, if endptr is not null                    
.................... */ 
.................... float strtof(char *s,char *endptr); 
.................... #if defined(__PCD__) 
.................... float48 strtof48(char *s,char *endptr); 
.................... float64 strtod(char *s,char *endptr); 
.................... #else 
.................... //provided for compatibility 
.................... #define strtof48(s, e) strtof(s, e) 
.................... #define strtod(s, e) strtof(s, e) 
.................... #endif 
....................  
.................... /* Standard template: float32 atof(char * s) 
....................  * converts the initial portion of the string s to a float. 
....................  * returns the converted value if any, 0 otherwise 
....................  */ 
.................... #define atof(s)   strtof(s, 0) 
....................  
.................... #if defined(__PCD__) 
.................... // The following functions only work on the 24 bit compiler 
.................... // for the 30F, 33F, 24F and 24H parts 
....................  
.................... /* Standard template: float48 atof48(char * s) 
....................  * converts the initial portion of the string s to a float. 
....................  * returns the converted value if any, 0 otherwise 
....................  */ 
.................... #define atof48(s) strtof48(s, 0) 
....................  
.................... /* Standard template: float64 atof64(char * s) 
....................  * converts the initial portion of the string s to a float. 
....................  * returns the converted value if any, 0 otherwise 
....................  */ 
.................... #define atof64(s) strtod(s, 0) 
.................... #endif 
....................  
.................... /* Standard template: float32 atoe(char * s) 
....................  * converts the initial portion of the string s to a float. 
....................  * returns the converted value if any, 0 otherwise 
....................  * also handles E format numbers 
....................  */ 
.................... #if !defined(__PCD__) 
.................... float atoe(char * s); 
.................... #endif 
....................  
.................... #if defined(__PCD__) 
.................... float32 atoe(char * s); 
.................... #endif 
....................  
.................... //--------------------------------------------------------------------------- 
.................... // Pseudo-random sequence generation functions 
.................... //--------------------------------------------------------------------------- 
....................  
.................... /* The rand function computes a sequence of pseudo-random integers in 
....................  * the range 0 to RAND_MAX 
....................  * 
....................  * Parameters: 
....................  *       (none) 
....................  * 
....................  * Returns: 
....................  *       The pseudo-random integer 
....................  */ 
.................... unsigned int16 rand(void); 
....................  
.................... /* The srand function uses the argument as a seed for a new sequence of 
....................  * pseudo-random numbers to be returned by subsequent calls to rand. 
....................  * 
....................  * Parameters: 
....................  *       [in] seed: The seed value to start from. You might need to pass 
....................  * 
....................  * Returns: 
....................  *       (none) 
....................  * 
....................  * Remarks 
....................  *          The srand function sets the starting point for generating 
....................  *       a series of pseudorandom integers. To reinitialize the 
....................  *       generator, use 1 as the seed argument. Any other value for 
....................  *       seed sets the generator to a random starting point. rand 
....................  *       retrieves the pseudorandom numbers that are generated. 
....................  *       Calling rand before any call to srand generates the same 
....................  *       sequence as calling srand with seed passed as 1. 
....................  *          Usually, you need to pass a time here from outer source 
....................  *       so that the numbers will be different every time you run. 
....................  */ 
.................... void srand(unsigned int32 seed); 
....................  
.................... //--------------------------------------------------------------------------- 
.................... // Memory management functions 
.................... //--------------------------------------------------------------------------- 
....................  
.................... // Comming soon 
....................  
.................... //--------------------------------------------------------------------------- 
.................... // Communication with the environment 
.................... //--------------------------------------------------------------------------- 
....................  
.................... /* The function returns 0 always 
....................  */ 
.................... signed int8 system(char *string); 
....................  
.................... //--------------------------------------------------------------------------- 
.................... // Searching and sorting utilities 
.................... //--------------------------------------------------------------------------- 
....................  
.................... /* Performs a binary search of a sorted array.. 
....................  * 
....................  * Parameters: 
....................  *       [in] key: Object to search for 
....................  *       [in] base: Pointer to base of search data 
....................  *       [in] num: Number of elements 
....................  *       [in] width: Width of elements 
....................  *       [in] compare: Function that compares two elements 
....................  * 
....................  * Returns: 
....................  *       bsearch returns a pointer to an occurrence of key in the array pointed 
....................  *       to by base. If key is not found, the function returns NULL. If the 
....................  *       array is not in order or contains duplicate records with identical keys, 
....................  *       the result is unpredictable. 
....................  */ 
.................... //void *bsearch(const void *key, const void *base, size_t num, size_t width, 
.................... //              int (*compare)(const void *, const void *)); 
....................  
.................... /* Performs the shell-metzner sort (not the quick sort algorithm). The contents 
....................  * of the array are sorted into ascending order according to a comparison 
....................  * function pointed to by compar. 
....................  * 
....................  * Parameters: 
....................  *       [in] base: Pointer to base of search data 
....................  *       [in] num: Number of elements 
....................  *       [in] width: Width of elements 
....................  *       [in] compare: Function that compares two elements 
....................  * 
....................  * Returns: 
....................  *       (none) 
....................  */ 
.................... //void *qsort(const void *base, size_t num, size_t width, 
.................... //              int (*compare)(const void *, const void *)); 
....................  
.................... //--------------------------------------------------------------------------- 
.................... // Integer arithmetic functions 
.................... //--------------------------------------------------------------------------- 
....................  
.................... #define labs abs 
....................  
.................... div_t div(signed int numer, signed int denom); 
.................... ldiv_t ldiv(signed long numer, signed long denom); 
....................  
.................... //--------------------------------------------------------------------------- 
.................... // Multibyte character functions 
.................... //--------------------------------------------------------------------------- 
....................  
.................... // Not supported 
....................  
.................... //--------------------------------------------------------------------------- 
.................... // Multibyte string functions 
.................... //--------------------------------------------------------------------------- 
....................  
.................... // Not supported 
....................  
....................  
.................... //--------------------------------------------------------------------------- 
.................... // Internal implementation 
.................... //--------------------------------------------------------------------------- 
....................  
.................... #include <stddef.h> 
.................... /////////////////////////////////////////////////////////////////////////// 
.................... ////        (C) Copyright 1996,2003 Custom Computer Services           //// 
.................... //// This source code may only be used by licensed users of the CCS C  //// 
.................... //// compiler.  This source code may only be distributed to other      //// 
.................... //// licensed users of the CCS C compiler.  No other use, reproduction //// 
.................... //// or distribution is permitted without written permission.          //// 
.................... //// Derivative programs created using this software in object code    //// 
.................... //// form are not restricted in any way.                               //// 
.................... /////////////////////////////////////////////////////////////////////////// 
....................  
.................... #ifndef _STDDEF 
....................  
.................... #define _STDDEF 
....................  
.................... #if sizeof(unsigned int8 *)==1 
.................... #define ptrdiff_t unsigned int8 
.................... #else 
.................... #define ptrdiff_t unsigned int16 
.................... #endif 
....................  
.................... #if defined(__PCB__) 
.................... #define size_t unsigned int8 
.................... #else 
.................... #define size_t unsigned int16 
.................... #endif 
.................... #define wchar_t char 
.................... #define NULL 0 
....................  
.................... #define offsetof(s,f) (offsetofbit(s,f)/8) 
....................  
.................... #endif 
....................  
.................... #include <string.h> 
.................... //////////////////////////////////////////////////////////////////////////// 
.................... ////        (C) Copyright 1996,2008 Custom Computer Services            //// 
.................... //// This source code may only be used by licensed users of the CCS C   //// 
.................... //// compiler.  This source code may only be distributed to other       //// 
.................... //// licensed users of the CCS C compiler.  No other use, reproduction  //// 
.................... //// or distribution is permitted without written permission.           //// 
.................... //// Derivative programs created using this software in object code     //// 
.................... //// form are not restricted in any way.                                //// 
.................... //////////////////////////////////////////////////////////////////////////// 
....................  
.................... #ifndef _STRING 
.................... #define _STRING 
.................... #include <stddef.h> 
.................... /////////////////////////////////////////////////////////////////////////// 
.................... ////        (C) Copyright 1996,2003 Custom Computer Services           //// 
.................... //// This source code may only be used by licensed users of the CCS C  //// 
.................... //// compiler.  This source code may only be distributed to other      //// 
.................... //// licensed users of the CCS C compiler.  No other use, reproduction //// 
.................... //// or distribution is permitted without written permission.          //// 
.................... //// Derivative programs created using this software in object code    //// 
.................... //// form are not restricted in any way.                               //// 
.................... /////////////////////////////////////////////////////////////////////////// 
....................  
.................... #ifndef _STDDEF 
....................  
.................... #define _STDDEF 
....................  
.................... #if sizeof(unsigned int8 *)==1 
.................... #define ptrdiff_t unsigned int8 
.................... #else 
.................... #define ptrdiff_t unsigned int16 
.................... #endif 
....................  
.................... #if defined(__PCB__) 
.................... #define size_t unsigned int8 
.................... #else 
.................... #define size_t unsigned int16 
.................... #endif 
.................... #define wchar_t char 
.................... #define NULL 0 
....................  
.................... #define offsetof(s,f) (offsetofbit(s,f)/8) 
....................  
.................... #endif 
....................  
.................... #include <ctype.h> 
.................... //////////////////////////////////////////////////////////////////////////// 
.................... ////        (C) Copyright 1996,2003 Custom Computer Services            //// 
.................... //// This source code may only be used by licensed users of the CCS C   //// 
.................... //// compiler.  This source code may only be distributed to other       //// 
.................... //// licensed users of the CCS C compiler.  No other use, reproduction  //// 
.................... //// or distribution is permitted without written permission.           //// 
.................... //// Derivative programs created using this software in object code     //// 
.................... //// form are not restricted in any way.                                //// 
.................... //////////////////////////////////////////////////////////////////////////// 
....................  
.................... #ifndef _CTYPE 
.................... #define _CTYPE 
....................  
.................... #define islower(x)  isamong(x,"abcdefghijklmnopqrstuvwxyz") 
.................... #define isupper(x)  isamong(x,"ABCDEFGHIJKLMNOPQRSTUVWXYZ") 
.................... #define isalnum(x)  isamong(x,"0123456789ABCDEFGHIJKLMNOPQRSTUVWXYZabcdefghijklmnopqrstuvwxyz") 
.................... #define isalpha(x)  isamong(x,"ABCDEFGHIJKLMNOPQRSTUVWXYZabcdefghijklmnopqrstuvwxyz") 
.................... #define isdigit(x)  isamong(x,"0123456789") 
.................... #define isspace(x)  ((x)==' ') 
.................... #define isxdigit(x) isamong(x,"0123456789ABCDEFabcdef") 
.................... #define iscntrl(x)  ((x)<' ') 
.................... #define isprint(x)  ((x)>=' ') 
.................... #define isgraph(x)  ((x)>' ') 
.................... #define ispunct(x)  (((x)>' ')&&!isalnum(x)) 
....................  
.................... #endif 
....................  
....................  
....................  
....................  
....................  
.................... ////////////////////////////////////////////// 
.................... //// Uncomment the following define to    //// 
.................... //// allow some functions to use a        //// 
.................... //// quicker algorithm, but use more ROM  //// 
.................... ////                                      //// 
.................... //// #define FASTER_BUT_MORE_ROM          //// 
.................... ////////////////////////////////////////////// 
....................  
....................  
....................  
.................... /*Copying functions*/ 
.................... /* standard template: 
....................    void *memmove(void *s1, void *s2, size_t n). 
....................    Copies max of n characters safely (not following ending '\0') 
....................    from s2 in s1; if s2 has less than n characters, appends 0 */ 
....................  
.................... char *memmove(void *s1,char *s2,size_t n) 
.................... { 
....................    char *sc1; 
....................    char *sc2; 
....................    sc1=s1; 
....................    sc2=s2; 
....................    if(sc2<sc1 && sc1 <sc2 +n) 
....................       for(sc1+=n,sc2+=n;0<n;--n) 
....................          *--sc1=*--sc2; 
....................    else 
....................       for(;0<n;--n) 
....................          *sc1++=*sc2++; 
....................   return s1; 
....................   } 
....................  
.................... /* Standard template: char *strcpy(char *s1, const char *s2) 
....................    copies the string s2 including the null character to s1. 
....................    This is a compiler built in to handle the different address 
....................    spaces */ 
....................  
.................... #define strcopy strcpy 
....................  
.................... /* standard template: 
....................    char *strncpy(char *s1, const char *s2, size_t n). 
....................    Copies max of n characters (not following ending '\0') 
....................    from s2 in s1; if s2 has less than n characters, appends 0 */ 
....................  
.................... char *strncpy(char *s1, char *s2, size_t n) 
.................... { 
....................   char *s; 
....................  
....................   for (s = s1; n > 0 && *s2 != '\0'; n--) 
....................      *s++ = *s2++; 
....................   for (; n > 0; n--) 
....................      *s++ = '\0'; 
....................  
....................   return(s1); 
.................... } 
.................... /***********************************************************/ 
....................  
.................... /*concatenation functions*/ 
.................... /* standard template: char *strcat(char *s1, const char *s2) 
.................... appends s2 to s1*/ 
....................  
.................... char *strcat(char *s1, char *s2) 
.................... { 
....................    char *s; 
....................  
....................    for (s = s1; *s != '\0'; ++s); 
....................    while(*s2 != '\0') 
....................    { 
....................       *s = *s2; 
....................       ++s; 
....................       ++s2; 
....................    } 
....................  
....................    *s = '\0'; 
....................    return(s1); 
.................... } 
.................... /* standard template: char *strncat(char *s1, char *s2,size_t n) 
.................... appends not more than n characters from s2 to s1*/ 
....................  
.................... char *strncat(char *s1, char *s2, size_t n) 
.................... { 
....................    char *s; 
....................  
....................    for (s = s1; *s != '\0'; ++s); 
....................    while(*s2 != '\0' && 0<n) 
....................    { 
....................       *s = *s2; 
....................       ++s; 
....................       ++s2; 
....................       --n; 
....................    } 
....................  
....................    *s = '\0'; 
....................    return(s1); 
.................... } 
....................  
.................... /***********************************************************/ 
....................  
....................  
.................... /*comparison functions*/ 
.................... /* standard template: signed int memcmp(void *s1, void *s2). 
....................    Compares s1 & s2; returns -1 if s1<s2, 0 if s1=s2, 1 if s1>s2 */ 
....................  
.................... signed int8 memcmp(void * s1,char *s2,size_t n) 
.................... { 
.................... char *su1, *su2; 
.................... for(su1=s1, su2=s2; 0<n; ++su1, ++su2, --n) 
.................... { 
....................    if(*su1!=*su2) 
....................       return ((*su1<*su2)?-1:+1); 
.................... } 
.................... return 0; 
.................... } 
....................  
.................... /* standard template: int strcmp(const char *s1, const char *s2). 
....................    Compares s1 & s2; returns -1 if s1<s2, 0 if s1=s2, 1 if s1>s2 */ 
....................  
.................... signed int8 strcmp(char *s1, char *s2) 
.................... { 
....................    for (; *s1 == *s2; s1++, s2++) 
....................       if (*s1 == '\0') 
....................          return(0); 
....................    return((*s1 < *s2) ? -1: 1); 
.................... } 
.................... /* standard template: int strcoll(const char *s1, const char *s2). 
....................    Compares s1 & s2; returns -1 if s1<s2, 0 if s1=s2, 1 if s1>s2 */ 
....................  
.................... signed int8 strcoll(char *s1, char *s2) 
.................... { 
....................    for (; *s1 == *s2; s1++, s2++) 
....................       if (*s1 == '\0') 
....................          return(0); 
....................    return((*s1 < *s2) ? -1: 1); 
.................... } 
....................  
.................... /* standard template: 
....................    int strncmp(const char *s1, const char *s2, size_t n). 
....................    Compares max of n characters (not following 0) from s1 to s2; 
....................    returns same as strcmp */ 
....................  
.................... signed int8 strncmp(char *s1, char *s2, size_t n) 
.................... { 
....................    for (; n > 0; s1++, s2++, n--) 
....................       if (*s1 != *s2) 
....................          return((*s1 <*s2) ? -1: 1); 
....................       else if (*s1 == '\0') 
....................          return(0); 
....................    return(0); 
.................... } 
.................... /* standard template: 
....................    int strxfrm(const char *s1, const char *s2, size_t n). 
....................    transforms maximum of n characters from s2 and places them into s1*/ 
.................... size_t strxfrm(char *s1, char *s2, size_t n) 
.................... { 
....................   char *s; 
....................   unsigned int8 n1; 
....................   n1=n; 
....................   for (s = s1; n > 0 && *s2 != '\0'; n--) 
....................      *s++ = *s2++; 
....................   for (; n > 0; n--) 
....................      *s++ = '\0'; 
....................  
....................   return(n1); 
.................... } 
....................  
....................  
....................  
....................  
....................  
.................... /***********************************************************/ 
.................... /*Search functions*/ 
.................... /* standard template: void *memchr(const char *s, int c). 
....................    Finds first occurrence of c in n characters of s */ 
....................  
.................... char *memchr(void *s,unsigned int8 c,size_t n) 
.................... { 
....................    char uc; 
....................    char *su; 
....................    uc=c; 
....................    for(su=s;0<n;++su,--n) 
....................       if(*su==uc) 
....................       return su; 
....................    return NULL; 
.................... } 
....................  
.................... /* standard template: char *strchr(const char *s, int c). 
....................    Finds first occurrence of c in s */ 
....................  
.................... char *strchr(char *s, unsigned int8 c) 
.................... { 
....................    for (; *s != c; s++) 
....................       if (*s == '\0') 
....................          return(0); 
....................    return(s); 
.................... } 
.................... /* standard template: 
....................    size_t strcspn(const char *s1, const char *s2). 
....................    Computes length of max initial segment of s1 that 
....................    consists entirely of characters NOT from s2*/ 
....................  
.................... unsigned int8  strcspn(char *s1, char *s2) 
.................... { 
....................    char *sc1, *sc2; 
....................  
....................    for (sc1 = s1; *sc1 != 0; sc1++) 
....................       for (sc2 = s2; *sc2 != 0; sc2++) 
....................          if (*sc1 == *sc2) 
....................             return(sc1 - s1); 
....................    return(sc1 - s1); 
.................... } 
.................... /* standard template: 
....................    char *strpbrk(const char *s1, const char *s2). 
....................    Locates first occurence of any character from s2 in s1; 
....................    returns s1 if s2 is empty string */ 
....................  
.................... char *strpbrk(char *s1, char *s2) 
.................... { 
....................    char *sc1, *sc2; 
....................  
....................    for (sc1 = s1; *sc1 != 0; sc1++) 
....................       for (sc2 = s2; *sc2 != 0; sc2++) 
....................          if (*sc1 == *sc2) 
....................             return(sc1); 
....................    return(0); 
.................... } 
....................  
....................  
.................... /* standard template: char *strrchr(const char *s, int c). 
....................    Finds last occurrence of c in s */ 
....................  
.................... char *strrchr(char *s, unsigned int8 c) 
.................... { 
....................    char *p; 
....................  
....................    for (p = 0; ; s++) 
....................    { 
....................       if (*s == c) 
....................          p = s; 
....................       if (*s == '\0') 
....................          return(p); 
....................    } 
.................... } 
.................... /* computes length of max initial segment of s1 consisting 
....................    entirely of characters from s2 */ 
....................  
.................... unsigned int8  strspn(char *s1, char *s2) 
.................... { 
....................    char *sc1, *sc2; 
....................  
....................    for (sc1 = s1; *sc1 != 0; sc1++) 
....................       for (sc2 = s2; ; sc2++) 
....................     if (*sc2 == '\0') 
....................        return(sc1 - s1); 
....................          else if (*sc1 == *sc2) 
....................             break; 
....................    return(sc1 - s1); 
.................... } 
.................... /* standard template: 
....................    char *strstr(const char *s1, const char *s2); 
....................    Locates first occurence of character sequence s2 in s1; 
....................    returns 0 if s2 is empty string 
....................  
....................    Uncomment #define FASTER_BUT_MORE_ROM at the top of the 
....................    file to use the faster algorithm */ 
.................... char *strstr(char *s1, char *s2) 
.................... { 
....................    char *s, *t; 
....................  
....................    #ifdef FASTER_BUT_MORE_ROM 
....................    if (*s2 == '\0') 
....................          return(s1); 
....................    #endif 
....................  
....................    while (*s1) 
....................    { 
....................       for(s = s1, t = s2; *t && (*s == *t); ++s, ++t); 
....................  
....................       if (*t == '\0') 
....................          return s1; 
....................       ++s1; 
....................       #ifdef FASTER_BUT_MORE_ROM 
....................          while(*s1 != '\0' && *s1 != *s2) 
....................             ++s1; 
....................       #endif 
....................    } 
....................    return 0; 
.................... } 
....................  
.................... /* standard template: char *strtok(char *s1, const char *s2). 
....................  
....................    Finds next token in s1 delimited by a character from separator 
....................    string s2 (which can be different from call to call).  First call 
....................    starts at beginning of s1 searching for first character NOT 
....................    contained in s2; returns 0 if none is found. 
....................    If one is found, it is the start of first token (return value). 
....................    Function then searches from there for a character contained in s2. 
....................    If none is found, current token extends to end of s1, and subsequent 
....................    searches for a token will return 0.  If one is found, it is 
....................    overwritten by '\0', which terminates current token.  Function saves 
....................    pointer to following character from which next search will start. 
....................    Each subsequent call, with 0 as first argument, starts searching 
....................    from saved pointer */ 
....................  
.................... char *strtok(char *s1, char *s2) 
.................... { 
....................    char *beg, *end; 
....................    static char *save; 
....................  
....................    beg = (s1)? s1: save; 
....................    beg += strspn(beg, s2); 
....................    if (*beg == '\0') 
....................    { 
....................       *save = ' '; 
....................       return(0); 
....................    } 
....................    end = strpbrk(beg, s2); 
....................    if (*end != '\0') 
....................    { 
....................       *end = '\0'; 
....................       end++; 
....................    } 
....................    save = end; 
....................    return(beg); 
.................... } 
....................  
.................... /*****************************************************************/ 
.................... /*Miscellaneous functions*/ 
.................... /* standard template 
.................... maps error number in errnum to an error message string 
.................... Returns: Pointer to string 
.................... */ 
.................... #ifdef _ERRNO 
.................... char * strerror(unsigned int8 errnum) 
.................... { 
.................... char s[15]; 
.................... switch( errnum) 
.................... { 
.................... case 0: 
....................    strcpy(s,"no errors"); 
....................    return s; 
.................... case EDOM : 
....................    strcpy(s,"domain error"); 
....................    return s; 
.................... case ERANGE: 
....................    strcpy(s,"range error"); 
....................    return s; 
.................... } 
.................... } 
.................... #ENDIF 
.................... /* standard template: size_t strlen(const char *s). 
....................    Computes length of s1 (preceding terminating 0) */ 
....................  
.................... unsigned int8 strlen(char *s) 
.................... { 
....................    char *sc; 
....................  
....................    for (sc = s; *sc != 0; sc++); 
....................    return(sc - s); 
.................... } 
....................  
.................... /* standard template: size_t stricmp(const char *s1, const char *s2). 
....................    Compares s1 to s2 ignoring case (upper vs. lower) */ 
....................  
.................... signed int8 stricmp(char *s1, char *s2) 
.................... { 
....................  for(; *s1==*s2||(isalpha(*s1)&&isalpha(*s2)&&(*s1==*s2+32||*s2==*s1+32)); 
....................     s1++, s2++) 
....................     if (*s1 == '\0') 
....................        return(0); 
....................  return((*s1 < *s2) ? -1: 1); 
.................... } 
....................  
....................  
.................... /* standard template: char *strlwr(char *s). 
....................    Replaces uppercase letters by lowercase; 
....................    returns pointer to new string s */ 
....................  
.................... char *strlwr(char *s) 
.................... { 
....................    char *p; 
....................  
....................    for (p = s; *p != '\0'; p++) 
....................       if (*p >= 'A' && *p <='Z') 
....................          *p += 'a' - 'A'; 
....................    return(s); 
.................... } 
....................  
....................  
.................... /************************************************************/ 
....................  
....................  
.................... #endif 
....................  
....................  
.................... div_t div(signed int numer, signed int denom) 
.................... { 
....................    div_t val; 
....................    val.quot = numer / denom; 
....................    val.rem = numer - (denom * val.quot); 
....................    return (val); 
.................... } 
....................  
.................... ldiv_t ldiv(signed long numer, signed long denom) 
.................... { 
....................    ldiv_t val; 
....................  
....................    val.quot = numer / denom; 
....................    val.rem = numer - (denom * val.quot); 
....................    return (val); 
.................... } 
....................  
.................... #if defined(__PCD__) 
.................... float32 atoe(char * s) 
.................... { 
....................    float32 pow10 = 1.0; 
....................    float32 result = 0.0; 
....................    unsigned int8 sign = 0; 
....................    unsigned int8 expsign = 0; 
....................    char c; 
....................    unsigned int8 ptr = 0; 
....................    unsigned int8 i; 
....................    float32 exp = 1.0; 
....................    unsigned int8 expcnt = 0; 
....................  
....................    c = s[ptr++]; 
....................  
....................    if ((c>='0' && c<='9') || c=='+' || c=='-' || c=='.' || c=='E' || c=='e') { 
....................       if(c == '-') { 
....................          sign = 1; 
....................          c = s[ptr++]; 
....................       } 
....................       if(c == '+') 
....................          c = s[ptr++]; 
....................  
....................       while((c >= '0' && c <= '9')) { 
....................          result = 10*result + c - '0'; 
....................          c = s[ptr++]; 
....................       } 
....................  
....................       if (c == '.') { 
....................          c = s[ptr++]; 
....................          while((c >= '0' && c <= '9')) { 
....................              pow10 = pow10*10; 
....................              result += (c - '0')/pow10; 
....................              c = s[ptr++]; 
....................          } 
....................       } 
....................  
....................       // Handling the exponent 
....................       if (c=='e' || c=='E') { 
....................          c = s[ptr++]; 
....................  
....................          if(c == '-') { 
....................             expsign = 1; 
....................             c = s[ptr++]; 
....................          } 
....................          if(c == '+') 
....................             c = s[ptr++]; 
....................  
....................          while((c >= '0' && c <= '9')) { 
....................             expcnt = 10*expcnt + c - '0'; 
....................             c = s[ptr++]; 
....................          } 
....................  
....................          for(i=0;i<expcnt;i++) 
....................             exp*=10; 
....................  
....................          if(expsign==1) 
....................             result/=exp; 
....................          else 
....................             result*=exp; 
....................       } 
....................    } 
....................  
....................    if (sign == 1) 
....................       result = -1*result; 
....................    return(result); 
.................... } 
.................... #endif 
....................  
.................... #if !defined(__PCD__) 
.................... float atoe(char * s) 
.................... { 
....................    float pow10 = 1.0; 
....................    float result = 0.0; 
....................    unsigned int8 sign = 0; 
....................    unsigned int8 expsign = 0; 
....................    char c; 
....................    unsigned int8 ptr = 0; 
....................    unsigned int8 i; 
....................    float exp = 1.0; 
....................    unsigned int8 expcnt = 0; 
....................  
....................    c = s[ptr++]; 
....................  
....................    if ((c>='0' && c<='9') || c=='+' || c=='-' || c=='.' || c=='E' || c=='e') { 
....................       if(c == '-') { 
....................          sign = 1; 
....................          c = s[ptr++]; 
....................       } 
....................       if(c == '+') 
....................          c = s[ptr++]; 
....................  
....................       while((c >= '0' && c <= '9')) { 
....................          result = 10*result + c - '0'; 
....................          c = s[ptr++]; 
....................       } 
....................  
....................       if (c == '.') { 
....................          c = s[ptr++]; 
....................          while((c >= '0' && c <= '9')) { 
....................              pow10 = pow10*10; 
....................              result += (c - '0')/pow10; 
....................              c = s[ptr++]; 
....................          } 
....................       } 
....................  
....................       // Handling the exponent 
....................       if (c=='e' || c=='E') { 
....................          c = s[ptr++]; 
....................  
....................          if(c == '-') { 
....................             expsign = 1; 
....................             c = s[ptr++]; 
....................          } 
....................          if(c == '+') 
....................             c = s[ptr++]; 
....................  
....................          while((c >= '0' && c <= '9')) { 
....................             expcnt = 10*expcnt + c - '0'; 
....................             c = s[ptr++]; 
....................          } 
....................  
....................          for(i=0;i<expcnt;i++) 
....................             exp*=10; 
....................  
....................          if(expsign==1) 
....................             result/=exp; 
....................          else 
....................             result*=exp; 
....................       } 
....................    } 
....................  
....................    if (sign == 1) 
....................       result = -1*result; 
....................    return(result); 
.................... } 
.................... #endif 
....................  
.................... signed int atoi(char *s) 
.................... { 
....................    signed int result; 
....................    unsigned int sign, base, index; 
....................    char c; 
....................  
....................    index = 0; 
....................    sign = 0; 
....................    base = 10; 
....................    result = 0; 
....................  
....................    if (!s) 
....................       return 0; 
....................    // Omit all preceeding alpha characters 
....................    c = s[index++]; 
....................  
....................    // increase index if either positive or negative sign is detected 
....................    if (c == '-') 
....................    { 
....................       sign = 1;         // Set the sign to negative 
....................       c = s[index++]; 
....................    } 
....................    else if (c == '+') 
....................    { 
....................       c = s[index++]; 
....................    } 
....................  
....................    if (c >= '0' && c <= '9') 
....................    { 
....................  
....................       // Check for hexa number 
....................       if (c == '0' && (s[index] == 'x' || s[index] == 'X')) 
....................       { 
....................          base = 16; 
....................          index++; 
....................          c = s[index++]; 
....................       } 
....................  
....................       // The number is a decimal number 
....................       if (base == 10) 
....................       { 
....................          while (c >= '0' && c <= '9') 
....................          { 
....................             result = 10*result + (c - '0'); 
....................             c = s[index++]; 
....................          } 
....................       } 
....................       else if (base == 16)    // The number is a hexa number 
....................       { 
....................          c = toupper(c); 
....................          while ( (c >= '0' && c <= '9') || (c >= 'A' && c<='F')) 
....................          { 
....................             if (c >= '0' && c <= '9') 
....................                result = (result << 4) + (c - '0'); 
....................             else 
....................                result = (result << 4) + (c - 'A' + 10); 
....................  
....................             c = s[index++]; 
....................             c = toupper(c); 
....................          } 
....................       } 
....................    } 
....................  
....................    if (sign == 1 && base == 10) 
....................        result = -result; 
....................  
....................    return(result); 
.................... } 
....................  
.................... signed long atol(char *s) 
.................... { 
....................    signed long result; 
....................    unsigned int sign, base, index; 
....................    char c; 
....................  
....................    index = 0; 
....................    sign = 0; 
....................    base = 10; 
....................    result = 0; 
....................  
....................    if (!s) 
....................       return 0; 
....................    c = s[index++]; 
....................  
....................    // increase index if either positive or negative sign is detected 
....................    if (c == '-') 
....................    { 
....................       sign = 1;         // Set the sign to negative 
....................       c = s[index++]; 
....................    } 
....................    else if (c == '+') 
....................    { 
....................       c = s[index++]; 
....................    } 
....................  
....................    if (c >= '0' && c <= '9') 
....................    { 
....................       if (c == '0' && (s[index] == 'x' || s[index] == 'X')) 
....................       { 
....................          base = 16; 
....................          index++; 
....................          c = s[index++]; 
....................       } 
....................  
....................       // The number is a decimal number 
....................       if (base == 10) 
....................       { 
....................          while (c >= '0' && c <= '9') 
....................          { 
....................             result = 10*result + (c - '0'); 
....................             c = s[index++]; 
....................          } 
....................       } 
....................       else if (base == 16)    // The number is a hexa number 
....................       { 
....................          c = toupper(c); 
....................          while ( (c >= '0' && c <= '9') || (c >= 'A' && c <='F')) 
....................          { 
....................             if (c >= '0' && c <= '9') 
....................                result = (result << 4) + (c - '0'); 
....................             else 
....................                result = (result << 4) + (c - 'A' + 10); 
....................  
....................             c = s[index++];c = toupper(c); 
....................          } 
....................       } 
....................    } 
....................  
....................    if (base == 10 && sign == 1) 
....................       result = -result; 
....................  
....................    return(result); 
.................... } 
....................  
.................... /* A fast routine to multiply by 10 
....................  */ 
.................... signed int32 mult_with10(int32 num) 
.................... { 
....................    return ( (num << 1) + (num << 3) ); 
.................... } 
....................  
.................... #if sizeof(long)==2 
.................... signed int32 atoi32(char *s) 
.................... { 
....................    signed int32 result; 
....................    int8 sign, base, index; 
....................    char c; 
....................  
....................    index = 0; 
....................    sign = 0; 
....................    base = 10; 
....................    result = 0; 
....................  
....................    if (!s) 
....................       return 0; 
....................    c = s[index++]; 
....................  
....................    // increase index if either positive or negative sign is detected 
....................    if (c == '-') 
....................    { 
....................       sign = 1;         // Set the sign to negative 
....................       c = s[index++]; 
....................    } 
....................    else if (c == '+') 
....................    { 
....................       c = s[index++]; 
....................    } 
....................  
....................    if (c >= '0' && c <= '9') 
....................    { 
....................       if (c == '0' && (s[index] == 'x' || s[index] == 'X')) 
....................       { 
....................          base = 16; 
....................          index++; 
....................          c = s[index++]; 
....................       } 
....................  
....................       // The number is a decimal number 
....................       if (base == 10) 
....................       { 
....................          while (c >= '0' && c <= '9') { 
....................             result = (result << 1) + (result << 3);  // result *= 10; 
....................             result += (c - '0'); 
....................             c = s[index++]; 
....................          } 
....................       } 
....................       else if (base == 16)    // The number is a hexa number 
....................       { 
....................          c = toupper(c); 
....................          while ((c >= '0' && c <= '9') || (c >= 'A' && c <='F')) 
....................          { 
....................             if (c >= '0' && c <= '9') 
....................                result = (result << 4) + (c - '0'); 
....................             else 
....................                result = (result << 4) + (c - 'A' + 10); 
....................  
....................             c = s[index++];c = toupper(c); 
....................          } 
....................       } 
....................    } 
....................  
....................    if (base == 10 && sign == 1) 
....................       result = -result; 
....................  
....................    return(result); 
.................... } 
.................... #endif 
....................  
.................... #if defined(__PCD__) 
....................  
.................... signed int48 atoi48(char *s) 
.................... { 
....................    signed int48 result; 
....................    int8 sign, base, index; 
....................    char c; 
....................  
....................    index = 0; 
....................    sign = 0; 
....................    base = 10; 
....................    result = 0; 
....................  
....................    if (!s) 
....................       return 0; 
....................    c = s[index++]; 
....................  
....................    // increase index if either positive or negative sign is detected 
....................    if (c == '-') 
....................    { 
....................       sign = 1;         // Set the sign to negative 
....................       c = s[index++]; 
....................    } 
....................    else if (c == '+') 
....................    { 
....................       c = s[index++]; 
....................    } 
....................  
....................    if (c >= '0' && c <= '9') 
....................    { 
....................       if (c == '0' && (s[index] == 'x' || s[index] == 'X')) 
....................       { 
....................          base = 16; 
....................          index++; 
....................          c = s[index++]; 
....................       } 
....................  
....................       // The number is a decimal number 
....................       if (base == 10) 
....................       { 
....................          while (c >= '0' && c <= '9') { 
....................             result = (result << 1) + (result << 3);  // result *= 10; 
....................             result += (c - '0'); 
....................             c = s[index++]; 
....................          } 
....................       } 
....................       else if (base == 16)    // The number is a hexa number 
....................       { 
....................          c = toupper(c); 
....................          while ((c >= '0' && c <= '9') || (c >= 'A' && c <='F')) 
....................          { 
....................             if (c >= '0' && c <= '9') 
....................                result = (result << 4) + (c - '0'); 
....................             else 
....................                result = (result << 4) + (c - 'A' + 10); 
....................  
....................             c = s[index++];c = toupper(c); 
....................          } 
....................       } 
....................    } 
....................  
....................    if (base == 10 && sign == 1) 
....................       result = -result; 
....................  
....................    return(result); 
.................... } 
....................  
.................... signed int64 atoi64(char *s) 
.................... { 
....................    signed int64 result; 
....................    int8 sign, base, index; 
....................    char c; 
....................  
....................    index = 0; 
....................    sign = 0; 
....................    base = 10; 
....................    result = 0; 
....................  
....................    if (!s) 
....................       return 0; 
....................    c = s[index++]; 
....................  
....................    // increase index if either positive or negative sign is detected 
....................    if (c == '-') 
....................    { 
....................       sign = 1;         // Set the sign to negative 
....................       c = s[index++]; 
....................    } 
....................    else if (c == '+') 
....................    { 
....................       c = s[index++]; 
....................    } 
....................  
....................    if (c >= '0' && c <= '9') 
....................    { 
....................       if (c == '0' && (s[index] == 'x' || s[index] == 'X')) 
....................       { 
....................          base = 16; 
....................          index++; 
....................          c = s[index++]; 
....................       } 
....................  
....................       // The number is a decimal number 
....................       if (base == 10) 
....................       { 
....................          while (c >= '0' && c <= '9') { 
....................             result = (result << 1) + (result << 3);  // result *= 10; 
....................             result += (c - '0'); 
....................             c = s[index++]; 
....................          } 
....................       } 
....................       else if (base == 16)    // The number is a hexa number 
....................       { 
....................          c = toupper(c); 
....................          while ((c >= '0' && c <= '9') || (c >= 'A' && c <='F')) 
....................          { 
....................             if (c >= '0' && c <= '9') 
....................                result = (result << 4) + (c - '0'); 
....................             else 
....................                result = (result << 4) + (c - 'A' + 10); 
....................  
....................             c = s[index++];c = toupper(c); 
....................          } 
....................       } 
....................    } 
....................  
....................    if (base == 10 && sign == 1) 
....................       result = -result; 
....................  
....................    return(result); 
.................... } 
.................... #endif 
....................  
.................... char * itoa(signed int32 num, unsigned int base, char * s) 
.................... { 
....................      unsigned int32 temp=1; 
....................      unsigned int8 i,sign=0,cnt=0; 
....................      char c; 
....................  
....................      if(num<0) { 
....................          sign=1;        // Check for negative number 
....................          num*=-1; 
....................      } 
....................  
....................      while(temp>0) { 
....................          temp=(num/base); 
....................          s[cnt]=(num%base)+'0';    // Conversion 
....................  
....................          if(s[cnt]>0x39) 
....................             s[cnt]+=0x7; 
....................  
....................          cnt++; 
....................          num=temp; 
....................      } 
....................  
....................      if(sign==1) { 
....................          s[cnt]=0x2D;      // Negative sign 
....................          cnt++; 
....................      } 
....................  
....................      for(i = 0;i<(int8)(cnt/2);i++) { 
....................  
....................          c=s[i]; 
....................          s[i]=s[cnt-i-1];        // Reverse the number 
....................          s[cnt-i-1]=c; 
....................      } 
....................      s[cnt]='\0';     // End the string 
....................      return s; 
.................... } 
....................  
.................... float strtof(char *s, char *endptr) 
.................... { 
....................    float pow10 = 1.0; 
....................    float result = 0.0; 
....................    int1 skip = 1, sign = 0, point = 0; 
....................    char c; 
....................    unsigned int8 ptr = 0; 
....................  
....................    if (!s) 
....................       return 0; 
....................  
....................    for(c=s[ptr++]; c!=0; c=s[ptr++]) 
....................    { 
....................       if (skip && !isspace(c)) 
....................       { 
....................          skip = 0; 
....................          if (c == '+') 
....................          { 
....................             sign = 0; 
....................             continue; 
....................          }             
....................          else if (c == '-') 
....................          { 
....................             sign = 1; 
....................             continue; 
....................          } 
....................       } 
....................       if (!skip && (c == '.') && !point) 
....................          point = 1; 
....................       else if (!skip && isdigit(c)) 
....................       { 
....................          c -= '0'; 
....................          if (point) 
....................          { 
....................             pow10 = pow10 * 10.0; 
....................             result += (float)c / pow10;    
....................          } 
....................          else 
....................          { 
....................             result = 10.0 * result + (float)c; 
....................          } 
....................       } 
....................       else if (!skip) 
....................          break; 
....................    } 
....................  
....................    if (sign) 
....................       result = -1*result; 
....................        
....................    if(endptr) 
....................    { 
....................       if (ptr) { 
....................          ptr--; 
....................        #IF LONG_POINTERS  
....................          *((int16 *)endptr)= s+ptr;  
....................        #ELSE 
....................          *((char *)endptr)=s+ptr; 
....................        #ENDIF 
....................       } 
....................       else 
....................       { 
....................       #IF LONG_POINTERS 
....................       *((int16 *)endptr)= s;  
....................       #ELSE 
....................       *((char *)endptr)=s; 
....................       #ENDIF 
....................       } 
....................    } 
....................  
....................    return(result); 
.................... } 
....................  
.................... #if defined(__PCD__) 
.................... float48 strtof48(char *s, char *endptr) 
.................... { 
....................    float48 pow10 = 1.0; 
....................    float48 result = 0.0; 
....................    int1 skip = 1, sign = 0, point = 0; 
....................    char c; 
....................    unsigned int8 ptr = 0; 
....................  
....................    if (!s) 
....................       return 0; 
....................  
....................    for(c=s[ptr++]; c!=0; c=s[ptr++]) 
....................    { 
....................       if (skip && !isspace(c)) 
....................       { 
....................          skip = 0; 
....................          if (c == '+') 
....................          { 
....................             sign = 0; 
....................             continue; 
....................          }             
....................          else if (c == '-') 
....................          { 
....................             sign = 1; 
....................             continue; 
....................          } 
....................       } 
....................       if (!skip && (c == '.') && !point) 
....................          point = 1; 
....................       else if (!skip && isdigit(c)) 
....................       { 
....................          c -= '0'; 
....................          if (point) 
....................          { 
....................             pow10 = pow10 * 10.0; 
....................             result += (float48)c / pow10;    
....................          } 
....................          else 
....................          { 
....................             result = 10.0 * result + (float48)c; 
....................          } 
....................       } 
....................       else if (!skip) 
....................          break; 
....................    } 
....................  
....................    if (sign) 
....................       result = -1*result; 
....................        
....................    if(endptr) 
....................    { 
....................       if (ptr) { 
....................          ptr--; 
....................        #IF LONG_POINTERS  
....................          *((int16 *)endptr)= s+ptr;  
....................        #ELSE 
....................          *((char *)endptr)=s+ptr; 
....................        #ENDIF 
....................       } 
....................       else 
....................       { 
....................       #IF LONG_POINTERS 
....................       *((int16 *)endptr)= s;  
....................       #ELSE 
....................       *((char *)endptr)=s; 
....................       #ENDIF 
....................       } 
....................    } 
....................  
....................    return(result); 
.................... } 
....................  
.................... float64 strtod(char *s, char *endptr) 
.................... { 
....................    float64 pow10 = 1.0; 
....................    float64 result = 0.0; 
....................    int1 skip = 1, sign = 0, point = 0; 
....................    char c; 
....................    unsigned int8 ptr = 0; 
....................  
....................    if (!s) 
....................       return 0; 
....................  
....................    for(c=s[ptr++]; c!=0; c=s[ptr++]) 
....................    { 
....................       if (skip && !isspace(c)) 
....................       { 
....................          skip = 0; 
....................          if (c == '+') 
....................          { 
....................             sign = 0; 
....................             continue; 
....................          }             
....................          else if (c == '-') 
....................          { 
....................             sign = 1; 
....................             continue; 
....................          } 
....................       } 
....................       if (!skip && (c == '.') && !point) 
....................          point = 1; 
....................       else if (!skip && isdigit(c)) 
....................       { 
....................          c -= '0'; 
....................          if (point) 
....................          { 
....................             pow10 = pow10 * 10.0; 
....................             result += (float64)c / pow10;    
....................          } 
....................          else 
....................          { 
....................             result = 10.0 * result + (float64)c; 
....................          } 
....................       } 
....................       else if (!skip) 
....................          break; 
....................    } 
....................  
....................    if (sign) 
....................       result = -1*result; 
....................        
....................    if(endptr) 
....................    { 
....................       if (ptr) { 
....................          ptr--; 
....................        #IF LONG_POINTERS  
....................          *((int16 *)endptr)= s+ptr;  
....................        #ELSE 
....................          *((char *)endptr)=s+ptr; 
....................        #ENDIF 
....................       } 
....................       else 
....................       { 
....................       #IF LONG_POINTERS 
....................       *((int16 *)endptr)= s;  
....................       #ELSE 
....................       *((char *)endptr)=s; 
....................       #ENDIF 
....................       } 
....................    } 
....................  
....................    return(result); 
.................... } 
.................... #endif 
....................  
.................... unsigned long strtoul(char *s, char *endptr, signed int base) 
.................... { 
....................    char *sc,*s1,*sd; 
....................    unsigned long x=0; 
....................    char sign; 
....................    char digits[]="0123456789abcdefghijklmnopqstuvwxyz"; 
....................    for(sc=s;isspace(*sc);++sc); 
....................    sign=*sc=='-'||*sc=='+'?*sc++:'+'; 
....................    if(sign=='-' || base <0 || base ==1|| base >36) // invalid base 
....................    goto StrtoulGO; 
....................  
....................    else if (base) 
....................    { 
....................       if(base==16 && *sc =='0'&&(sc[1]=='x' || sc[1]=='X')) 
....................          sc+=2; 
....................       if(base==8 && *sc =='0') 
....................          sc+=1; 
....................       if(base==2 && *sc =='0'&&sc[1]=='b') 
....................          sc+=2; 
....................  
....................    } 
....................    else if(*sc!='0') // base is 0, find base 
....................       base=10; 
....................    else if (sc[1]=='x' || sc[1]=='X') 
....................       base =16,sc+=2; 
....................    else if(sc[1]=='b') 
....................       base=2,sc+=2; 
....................    else 
....................       base=8; 
....................    for (s1=sc;*sc=='0';++sc);// skip leading zeroes 
....................    sd=memchr(digits,tolower(*sc),base); 
....................    for(; sd!=0; ) 
....................    { 
....................       x=x*base+(int16)(sd-digits); 
....................       ++sc; 
....................       sd=memchr(digits,tolower(*sc),base); 
....................    } 
....................    if(s1==sc) 
....................    { 
....................    StrtoulGO: 
....................       if (endptr) 
....................       { 
....................          #IF LONG_POINTERS 
....................          *((int16 *)endptr)= s;  
....................          #ELSE 
....................          *((char *)endptr)=s; 
....................          #ENDIF 
....................          } 
....................    return 0; 
....................    } 
....................    if (endptr) 
....................    { 
....................          #IF LONG_POINTERS 
....................          *((int16 *)endptr)= sc;  
....................          #ELSE 
....................          *((char *)endptr)=sc;  
....................          #ENDIF 
....................    } 
....................    return x; 
.................... } 
....................  
....................  
.................... signed long strtol(char *s,char *endptr, signed int base) 
.................... { 
....................    char *sc,*s1,*sd; 
....................    signed long x=0; 
....................    char sign; 
....................    char digits[]="0123456789abcdefghijklmnopqstuvwxyz"; 
....................    for(sc=s;isspace(*sc);++sc); 
....................    sign=*sc=='-'||*sc=='+'?*sc++:'+'; 
....................    if (base <0 || base ==1|| base >36) // invalid base 
....................    goto StrtolGO; 
....................    else if (base) 
....................    { 
....................       if(base==16 && *sc =='0'&&(sc[1]=='x' || sc[1]=='X')) 
....................          sc+=2; 
....................       if(base==8 && *sc =='0') 
....................          sc+=1; 
....................       if(base==2 && *sc =='0'&&sc[1]=='b') 
....................          sc+=2; 
....................  
....................    } 
....................    else if(*sc!='0') // base is 0, find base 
....................       base=10; 
....................    else if (sc[1]=='x' || sc[1]=='X') 
....................       base =16,sc+=2; 
....................    else if(sc[1]=='b') 
....................       base=2,sc+=2; 
....................    else 
....................       base=8; 
....................    for (s1=sc;*sc=='0';++sc);// skip leading zeroes 
....................  
....................    sd=memchr(digits,tolower(*sc),base); 
....................    for(;sd!=0;) 
....................    { 
....................       x=x*base+(int16)(sd-digits); 
....................       ++sc; 
....................       sd=memchr(digits,tolower(*sc),base); 
....................    } 
....................    if(s1==sc) 
....................    { 
....................    StrtolGO: 
....................       if (endptr) 
....................       { 
....................          #IF LONG_POINTERS 
....................          *((int16 *)endptr)= s;  
....................          #ELSE 
....................          *((char *)endptr)=s; 
....................          #ENDIF 
....................       } 
....................    return 0; 
....................    } 
....................    if(sign=='-') 
....................       x  =-x; 
....................    if (endptr) 
....................    { 
....................         #IF LONG_POINTERS 
....................          *((int16 *)endptr)= sc;  
....................         #ELSE 
....................         *((char *)endptr)=sc; 
....................         #ENDIF 
....................    } 
....................    return x; 
.................... } 
....................  
.................... signed int8 system(char *string) 
.................... { 
....................    return 0; 
.................... } 
....................  
.................... int8 mblen(char *s,size_t n) 
.................... { 
....................    return strlen(s); 
.................... } 
....................  
.................... int8 mbtowc(wchar_t *pwc,char *s,size_t n) 
.................... { 
....................    *pwc=*s; 
....................    return 1; 
.................... } 
....................  
.................... int8 wctomb(char *s,wchar_t wchar) 
.................... { 
....................    *s=wchar; 
....................    return 1; 
.................... } 
....................  
.................... size_t mbstowcs(wchar_t *pwcs,char *s,size_t n) 
.................... { 
....................    strncpy(pwcs,s,n); 
....................    return strlen(pwcs); 
.................... } 
....................  
.................... size_t wcstombs(char *s,wchar_t *pwcs,size_t n) 
.................... { 
....................    strncpy(s,pwcs,n); 
....................    return strlen(s); 
.................... } 
....................  
.................... //--------------------------------------------------------------------------- 
.................... // The random number implementation 
.................... //--------------------------------------------------------------------------- 
....................  
.................... unsigned int32 _Randseed; 
....................  
.................... unsigned int16 rand(void) 
.................... { 
....................    _Randseed = _Randseed * 1103515245 + 12345; 
....................    return ((unsigned int16)(_Randseed >> 16) % RAND_MAX); 
.................... } 
....................  
.................... void srand(unsigned int32 seed) 
.................... { 
....................    _Randseed = seed; 
.................... } 
....................  
.................... //--------------------------------------------------------------------------- 
.................... // Searching and sorting utilities implementation 
.................... //--------------------------------------------------------------------------- 
....................  
.................... #if !defined(__PCD__) 
.................... typedef signed int8 (*_Cmpfun)(char * p1,char * p2);  
.................... #else  
.................... typedef signed int16 (*_Cmpfun)(char * p1,char * p2);  
.................... #endif 
....................  
....................  
....................  
.................... void qsort(char * qdata, unsigned int qitems, unsigned int qsize, _Cmpfun cmp) { 
....................    unsigned int m,j,i,l; 
....................    int1 done; 
....................    unsigned int8 t[16]; 
....................  
....................    m = qitems/2; 
....................    while( m > 0 ) { 
....................      for(j=0; j<(qitems-m); ++j) { 
....................         i = j; 
....................         do 
....................         { 
....................            done=1; 
....................            l = i+m; 
....................            if( (*cmp)(qdata+i*qsize, qdata+l*qsize) > 0 ) { 
....................               memcpy(t, qdata+i*qsize, qsize); 
....................               memcpy(qdata+i*qsize, qdata+l*qsize, qsize); 
....................               memcpy(qdata+l*qsize, t, qsize); 
....................               if(m <= i) 
....................                 i -= m; 
....................                 done = 0; 
....................            } 
....................         } while(!done); 
....................      } 
....................      m = m/2; 
....................    } 
.................... } 
....................  
....................  
.................... char *bsearch(char *key, char *base, size_t num, size_t width,_Cmpfun cmp) 
.................... { 
....................    char *p, *q; 
....................    size_t n; 
....................    size_t pivot; 
....................    signed int val; 
....................  
....................    p = base; 
....................    n = num; 
....................  
....................    while (n > 0) 
....................    { 
....................       pivot = n >> 1; 
....................       q = p + width * pivot; 
....................  
....................       val = (*cmp)(key, q); 
....................  
....................       if (val < 0) 
....................          n = pivot; 
....................       else if (val == 0) 
....................          return ((char *)q); 
....................       else { 
....................          p = q + width; 
....................          n -= pivot + 1; 
....................       } 
....................    } 
....................  
....................    return NULL;      // There's no match 
.................... } 
....................  
....................  
.................... #endif 
....................  
....................  
.................... void conver_bcd (unsigned int16 x) 
.................... { 
....................    bcd_cent=0,bcd_dec=0,bcd_unid=0,bcd_mil=0; 
*
01202:  CLRF   12
01204:  CLRF   13
01206:  CLRF   14
01208:  CLRF   15
....................  
....................    while(x >= 1000) 
....................    { 
0120A:  MOVF   31,W
0120C:  SUBLW  02
0120E:  BC    1226
01210:  XORLW  FF
01212:  BNZ   121A
01214:  MOVF   30,W
01216:  SUBLW  E7
01218:  BC    1226
....................       x = x - 1000; 
0121A:  MOVLW  E8
0121C:  SUBWF  30,F
0121E:  MOVLW  03
01220:  SUBWFB 31,F
....................       ++bcd_mil; 
01222:  INCF   15,F
....................    } 
01224:  BRA    120A
....................  
....................    while(x >= 100) 
....................    { 
01226:  MOVF   31,F
01228:  BNZ   1230
0122A:  MOVF   30,W
0122C:  SUBLW  63
0122E:  BC    123C
....................       x = x - 100; 
01230:  MOVLW  64
01232:  SUBWF  30,F
01234:  MOVLW  00
01236:  SUBWFB 31,F
....................       ++bcd_cent; 
01238:  INCF   12,F
....................    } 
0123A:  BRA    1226
....................  
....................    while(x >= 10) 
....................    { 
0123C:  MOVF   31,F
0123E:  BNZ   1246
01240:  MOVF   30,W
01242:  SUBLW  09
01244:  BC    1252
....................       // este procedimiento convirte los datos de binario a bcd 
....................       x = x - 10; 
01246:  MOVLW  0A
01248:  SUBWF  30,F
0124A:  MOVLW  00
0124C:  SUBWFB 31,F
....................       ++bcd_dec; 
0124E:  INCF   13,F
....................    } 
01250:  BRA    123C
....................  
....................    bcd_unid = x; 
01252:  MOVFF  30,14
.................... } 
01256:  GOTO   1540 (RETURN)
....................  
.................... /******************************************************************************/ 
.................... /******************************************************************************/ 
.................... /*--------------------- Espacio de codigo principal --------------------------*/ 
.................... /******************************************************************************/  
.................... #zero_ram 
....................  
.................... void main() 
.................... { 
0125A:  CLRF   FF8
0125C:  BCF    FD0.7
0125E:  MOVLB  E
01260:  MOVLW  55
01262:  MOVWF  FA7
01264:  MOVLW  AA
01266:  MOVWF  FA7
01268:  BCF    xBF.0
0126A:  MOVLW  14
0126C:  MOVWF  xF7
0126E:  MOVLW  06
01270:  MOVWF  xD3
01272:  MOVLW  55
01274:  MOVWF  FA7
01276:  MOVLW  AA
01278:  MOVWF  FA7
0127A:  BSF    xBF.0
0127C:  MOVLW  AE
0127E:  MOVWF  00
01280:  MOVLW  0F
01282:  MOVWF  01
01284:  MOVLW  02
01286:  MOVWF  FE9
01288:  MOVLW  00
0128A:  MOVWF  FEA
0128C:  CLRF   FEE
0128E:  DECFSZ 00,F
01290:  BRA    128C
01292:  DECFSZ 01,F
01294:  BRA    128C
01296:  CLRF   FEA
01298:  CLRF   FE9
0129A:  CLRF   04
0129C:  BSF    F7E.3
0129E:  MOVLW  E1
012A0:  MOVWF  FB0
012A2:  MOVLW  04
012A4:  MOVWF  F7F
012A6:  MOVLW  A6
012A8:  MOVWF  FAD
012AA:  MOVLW  90
012AC:  MOVWF  FAC
012AE:  CLRF   06
012B0:  CLRF   05
012B2:  CLRF   08
012B4:  CLRF   07
012B6:  CLRF   12
012B8:  CLRF   13
012BA:  CLRF   14
012BC:  CLRF   15
012BE:  CLRF   16
012C0:  CLRF   17
012C2:  CLRF   18
012C4:  CLRF   19
012C6:  MOVLB  1
012C8:  CLRF   x88
012CA:  MOVLW  FF
012CC:  MOVLB  F
012CE:  MOVWF  x48
012D0:  BCF    FC2.6
012D2:  BCF    FC2.7
012D4:  MOVF   x49,W
012D6:  ANDLW  E0
012D8:  IORLW  1F
012DA:  MOVWF  x49
012DC:  CLRF   x25
012DE:  CLRF   FD1
012E0:  CLRF   FD2
012E2:  MOVLW  3F
012E4:  MOVWF  1A
012E6:  MOVLW  06
012E8:  MOVWF  1B
012EA:  MOVLW  5B
012EC:  MOVWF  1C
012EE:  MOVLW  4F
012F0:  MOVWF  1D
012F2:  MOVLW  66
012F4:  MOVWF  1E
012F6:  MOVLW  6D
012F8:  MOVWF  1F
012FA:  MOVLW  7D
012FC:  MOVWF  20
012FE:  MOVLW  07
01300:  MOVWF  21
01302:  MOVLW  7F
01304:  MOVWF  22
01306:  MOVLW  67
01308:  MOVWF  23
0130A:  MOVLW  77
0130C:  MOVWF  24
0130E:  MOVLW  7C
01310:  MOVWF  25
01312:  MOVLW  58
01314:  MOVWF  26
01316:  MOVLW  5E
01318:  MOVWF  27
0131A:  MOVLW  7B
0131C:  MOVWF  28
0131E:  MOVLW  71
01320:  MOVWF  29
01322:  CLRF   2A
01324:  CLRF   2B
....................    PLLEN = 1;          //Habilita PLL para generar 48MHz de oscilador*/\ 
01326:  BSF    F9B.6
....................    //Configuta el ADC y los canales que se utilizaran 
....................    setup_adc(ADC_CLOCK_INTERNAL); 
01328:  MOVF   FC1,W
0132A:  ANDLW  C0
0132C:  IORLW  03
0132E:  MOVWF  FC1
01330:  BCF    FC1.7
01332:  BSF    FC2.0
01334:  BSF    FC2.7
01336:  BSF    FC2.1
01338:  BTFSC  FC2.1
0133A:  BRA    1338
0133C:  BCF    FC2.7
....................    setup_adc_ports(sAN10|sAN9|sAN12,VSS_VDD); 
0133E:  MOVLW  FF
01340:  MOVWF  x48
01342:  BCF    FC2.6
01344:  BCF    FC2.7
01346:  MOVF   x49,W
01348:  ANDLW  E0
0134A:  IORLW  09
0134C:  MOVWF  x49
....................    WHILE(TRUE){ 
....................     output_D(display[5]); 
0134E:  CLRF   F95
01350:  MOVFF  1F,F8C
....................          output_high(d_umil); 
01354:  BCF    F96.2
01356:  BSF    F8D.2
....................    } 
01358:  BRA    134E
....................    for(;;) 
....................    { 
....................       //Lectura de pulsadores para saber que valor desea mostrar 
....................       if( !input(PULSADOR1)) 
0135A:  BSF    F93.7
0135C:  BTFSC  F81.7
0135E:  BRA    1364
....................       { 
....................          select = 0; 
01360:  CLRF   11
....................          }else if( !input(PULSADOR2)){ 
01362:  BRA    137A
01364:  BSF    F93.6
01366:  BTFSC  F81.6
01368:  BRA    1370
....................          select = 1; 
0136A:  MOVLW  01
0136C:  MOVWF  11
....................          }else if( !input(PULSADOR3)){ 
0136E:  BRA    137A
01370:  BSF    F93.5
01372:  BTFSC  F81.5
01374:  BRA    137A
....................          select = 2; 
01376:  MOVLW  02
01378:  MOVWF  11
....................       } 
....................  
....................       //Selecciona la salida segun el valor de la variable select 
....................       switch(select) 
....................       { 
0137A:  MOVF   11,W
0137C:  XORLW  00
0137E:  MOVLB  0
01380:  BZ    138E
01382:  XORLW  01
01384:  BZ    13EE
01386:  XORLW  03
01388:  BTFSC  FD8.2
0138A:  BRA    1512
0138C:  BRA    1536
....................          case 0: 
....................          set_adc_channel(CH_TEMP);// Inicia lectura por ADC canal donde esta conectado el sensor de temperatura 
0138E:  MOVLW  28
01390:  MOVWF  01
01392:  MOVF   FC2,W
01394:  ANDLW  C3
01396:  IORWF  01,W
01398:  MOVWF  FC2
....................          delay_us(100);//Espera 100 microsegunds para estabilizar el ADC 
0139A:  MOVLW  64
0139C:  MOVWF  31
0139E:  RCALL  1008
....................          temp = (read_adc() * 1.3022);//Calcula Temperatura 1 - 150 grados centrigrados 
013A0:  BSF    FC2.1
013A2:  BTFSC  FC2.1
013A4:  BRA    13A2
013A6:  MOVF   FC4,W
013A8:  CLRF   32
013AA:  MOVWF  31
013AC:  BRA    1028
013AE:  MOVFF  03,34
013B2:  MOVFF  02,33
013B6:  MOVFF  01,32
013BA:  MOVFF  00,31
013BE:  MOVLW  7D
013C0:  MOVWF  38
013C2:  MOVLW  AE
013C4:  MOVWF  37
013C6:  MOVLW  26
013C8:  MOVWF  36
013CA:  MOVLW  7F
013CC:  MOVWF  35
013CE:  RCALL  1060
013D0:  MOVFF  03,33
013D4:  MOVFF  02,32
013D8:  MOVFF  01,31
013DC:  MOVFF  00,30
013E0:  BRA    1152
013E2:  MOVFF  01,0F
....................          dato_analogo = temp;//Asigna el valor de salida con el valor de temperatura 
013E6:  CLRF   0A
013E8:  MOVFF  0F,09
....................          break; 
013EC:  BRA    1536
....................  
....................          case 1: 
....................          set_adc_channel(CH_LUZ); 
013EE:  MOVLW  24
013F0:  MOVWF  01
013F2:  MOVF   FC2,W
013F4:  ANDLW  C3
013F6:  IORWF  01,W
013F8:  MOVWF  FC2
....................          delay_us(100); 
013FA:  MOVLW  64
013FC:  MOVWF  31
013FE:  RCALL  1008
....................          luz =  read_adc(); 
01400:  BSF    FC2.1
01402:  BTFSC  FC2.1
01404:  BRA    1402
01406:  MOVF   FC4,W
01408:  CLRF   0E
0140A:  CLRF   0D
0140C:  CLRF   0C
0140E:  MOVWF  0B
....................          if(luz > 3){ 
01410:  MOVF   0E,F
01412:  BNZ   1424
01414:  MOVF   0D,F
01416:  BNZ   1424
01418:  MOVF   0C,F
0141A:  BNZ   1424
0141C:  MOVF   0B,W
0141E:  SUBLW  03
01420:  BTFSC  FD8.0
01422:  BRA    14FC
....................          luz = (int32)(110 - luz); 
01424:  MOVLW  6E
01426:  BSF    FD8.0
01428:  SUBFWB 0B,W
0142A:  MOVWF  00
0142C:  MOVLW  00
0142E:  SUBFWB 0C,W
01430:  MOVWF  01
01432:  MOVLW  00
01434:  SUBFWB 0D,W
01436:  MOVWF  02
01438:  MOVLW  00
0143A:  SUBFWB 0E,W
0143C:  MOVWF  0E
0143E:  MOVFF  02,0D
01442:  MOVFF  01,0C
01446:  MOVFF  00,0B
....................           
....................          if(luz < 0)luz = 0; 
....................          luz = luz * 8.2; 
0144A:  MOVFF  0E,33
0144E:  MOVFF  0D,32
01452:  MOVFF  0C,31
01456:  MOVFF  0B,30
0145A:  BRA    118C
0145C:  MOVFF  03,34
01460:  MOVFF  02,33
01464:  MOVFF  01,32
01468:  MOVFF  00,31
0146C:  MOVLW  33
0146E:  MOVWF  38
01470:  MOVWF  37
01472:  MOVLW  03
01474:  MOVWF  36
01476:  MOVLW  82
01478:  MOVWF  35
0147A:  RCALL  1060
0147C:  MOVFF  03,33
01480:  MOVFF  02,32
01484:  MOVFF  01,31
01488:  MOVFF  00,30
0148C:  BRA    11C2
0148E:  MOVFF  03,0E
01492:  MOVFF  02,0D
01496:  MOVFF  01,0C
0149A:  MOVFF  00,0B
....................         if(luz > 1000 && luz < 1100){ 
0149E:  MOVF   0E,F
014A0:  BNZ   14B6
014A2:  MOVF   0D,F
014A4:  BNZ   14B6
014A6:  MOVF   0C,W
014A8:  SUBLW  02
014AA:  BC    14DA
014AC:  XORLW  FF
014AE:  BNZ   14B6
014B0:  MOVF   0B,W
014B2:  SUBLW  E8
014B4:  BC    14DA
014B6:  MOVF   0E,F
014B8:  BNZ   14DA
014BA:  MOVF   0D,F
014BC:  BNZ   14DA
014BE:  MOVF   0C,W
014C0:  SUBLW  04
014C2:  BNC   14DA
014C4:  BNZ   14CC
014C6:  MOVF   0B,W
014C8:  SUBLW  4B
014CA:  BNC   14DA
....................         luz = 1000; 
014CC:  CLRF   0E
014CE:  CLRF   0D
014D0:  MOVLW  03
014D2:  MOVWF  0C
014D4:  MOVLW  E8
014D6:  MOVWF  0B
....................         }else if(luz > 1100)luz = 0; 
014D8:  BRA    14FA
014DA:  MOVF   0E,F
014DC:  BNZ   14F2
014DE:  MOVF   0D,F
014E0:  BNZ   14F2
014E2:  MOVF   0C,W
014E4:  SUBLW  03
014E6:  BC    14FA
014E8:  XORLW  FF
014EA:  BNZ   14F2
014EC:  MOVF   0B,W
014EE:  SUBLW  4C
014F0:  BC    14FA
014F2:  CLRF   0E
014F4:  CLRF   0D
014F6:  CLRF   0C
014F8:  CLRF   0B
....................          }else{ 
014FA:  BRA    1508
....................          luz = 1000; 
014FC:  CLRF   0E
014FE:  CLRF   0D
01500:  MOVLW  03
01502:  MOVWF  0C
01504:  MOVLW  E8
01506:  MOVWF  0B
....................          } 
....................          dato_analogo = luz; 
01508:  MOVFF  0C,0A
0150C:  MOVFF  0B,09
....................          break; 
01510:  BRA    1536
....................          case 2: 
....................          set_adc_channel(CH_VIENTO);// Inicia lectura 
01512:  MOVLW  30
01514:  MOVWF  01
01516:  MOVF   FC2,W
01518:  ANDLW  C3
0151A:  IORWF  01,W
0151C:  MOVWF  FC2
....................          delay_us(100); 
0151E:  MOVLW  64
01520:  MOVWF  31
01522:  RCALL  1008
....................          vel_viento = read_adc(); 
01524:  BSF    FC2.1
01526:  BTFSC  FC2.1
01528:  BRA    1526
0152A:  MOVFF  FC4,10
....................          dato_analogo = vel_viento; 
0152E:  CLRF   0A
01530:  MOVFF  10,09
....................          break; 
01534:  BRA    1536
....................       } 
....................  
....................       //Salida display 7 segmentos 
....................       conver_bcd(dato_analogo); 
01536:  MOVFF  0A,31
0153A:  MOVFF  09,30
0153E:  BRA    1202
....................       for(i = 0;i < 80;i++) 
01540:  CLRF   06
01542:  CLRF   05
01544:  MOVF   06,F
01546:  BNZ   1606
01548:  MOVF   05,W
0154A:  SUBLW  4F
0154C:  BNC   1606
....................       { 
....................          output_D(display[bcd_unid]); 
0154E:  CLRF   03
01550:  MOVF   14,W
01552:  ADDLW  1A
01554:  MOVWF  FE9
01556:  MOVLW  00
01558:  ADDWFC 03,W
0155A:  MOVWF  FEA
0155C:  MOVFF  FEF,30
01560:  CLRF   F95
01562:  MOVFF  30,F8C
....................          output_high(d_unidad); 
01566:  BCF    F96.0
01568:  BSF    F8D.0
....................          delay_us(200); 
0156A:  MOVLW  C8
0156C:  MOVWF  31
0156E:  RCALL  1008
....................          output_low(d_unidad); 
01570:  BCF    F96.0
01572:  BCF    F8D.0
....................          output_D(display[bcd_dec]); 
01574:  CLRF   03
01576:  MOVF   13,W
01578:  ADDLW  1A
0157A:  MOVWF  FE9
0157C:  MOVLW  00
0157E:  ADDWFC 03,W
01580:  MOVWF  FEA
01582:  MOVFF  FEF,30
01586:  CLRF   F95
01588:  MOVFF  30,F8C
....................          output_high(d_decena); 
0158C:  BCF    F92.5
0158E:  BSF    F89.5
....................          delay_us(500); 
01590:  MOVLW  02
01592:  MOVWF  30
01594:  MOVLW  FA
01596:  MOVWF  31
01598:  RCALL  1008
0159A:  DECFSZ 30,F
0159C:  BRA    1594
....................          output_low(d_decena); 
0159E:  BCF    F92.5
015A0:  BCF    F89.5
....................          output_D(display[bcd_cent]); 
015A2:  CLRF   03
015A4:  MOVF   12,W
015A6:  ADDLW  1A
015A8:  MOVWF  FE9
015AA:  MOVLW  00
015AC:  ADDWFC 03,W
015AE:  MOVWF  FEA
015B0:  MOVFF  FEF,30
015B4:  CLRF   F95
015B6:  MOVFF  30,F8C
....................          output_high(d_centena); 
015BA:  BCF    F96.1
015BC:  BSF    F8D.1
....................          delay_us(500); 
015BE:  MOVLW  02
015C0:  MOVWF  30
015C2:  MOVLW  FA
015C4:  MOVWF  31
015C6:  RCALL  1008
015C8:  DECFSZ 30,F
015CA:  BRA    15C2
....................          output_low(d_centena); 
015CC:  BCF    F96.1
015CE:  BCF    F8D.1
....................          output_D(display[bcd_mil]); 
015D0:  CLRF   03
015D2:  MOVF   15,W
015D4:  ADDLW  1A
015D6:  MOVWF  FE9
015D8:  MOVLW  00
015DA:  ADDWFC 03,W
015DC:  MOVWF  FEA
015DE:  MOVFF  FEF,30
015E2:  CLRF   F95
015E4:  MOVFF  30,F8C
....................          output_high(d_umil); 
015E8:  BCF    F96.2
015EA:  BSF    F8D.2
....................          delay_us(500); 
015EC:  MOVLW  02
015EE:  MOVWF  30
015F0:  MOVLW  FA
015F2:  MOVWF  31
015F4:  RCALL  1008
015F6:  DECFSZ 30,F
015F8:  BRA    15F0
....................          output_low(d_umil); 
015FA:  BCF    F96.2
015FC:  BCF    F8D.2
....................       } 
015FE:  INCF   05,F
01600:  BTFSC  FD8.2
01602:  INCF   06,F
01604:  BRA    1544
....................  
....................    } 
01606:  MOVLB  F
01608:  BRA    135A
.................... }//end main 
....................  
....................       
....................    
0160A:  SLEEP 

Configuration Fuses:
   Word  1: F79A   NOWDT PLL3 NOPLLEN NOSTVREN NOXINST NODEBUG NOCPUDIV NOPROTECT
   Word  2: FF3D   HSPLL SOSC_HIGH CLOCKOUT NOFCMEN NOIESO WDT32768
   Word  3: F861   DSWDTOSC_INT RTCOSC_INT NODSBOR NODSWDT DSWDT8192 NOIOL1WAY ADC12 MSSPMSK7
   Word  4: F980   NOWPFP NOWPCFG WPDIS WPEND LS48MHZ
